; Function Attrs: mustprogress nounwind uwtable
define internal noundef zeroext i1 @_ZL12isDependencyRKN5clang4ento19CheckerRegistryDataEN4llvm9StringRefE(ptr noundef nonnull align 8 dereferenceable(168) %0, ptr nocapture readonly %1, i64 %2) #3 {
  %4 = getelementptr inbounds nuw i8, ptr %0, i64 136
  %5 = load ptr, ptr %4, align 8
  %6 = tail call noundef i64 @_ZNK4llvm15SmallVectorBaseIjE4sizeEv(ptr noundef nonnull align 8 dereferenceable(16) %4) #26
  %7 = getelementptr inbounds %"struct.std::pair", ptr %5, i64 %6
  %.not17.not = icmp eq i64 %6, 0
  br i1 %.not17.not, label %_ZN4llvmeqENS_9StringRefES0_.exit.thread, label %.lr.ph.preheader

.lr.ph.preheader:                                 ; preds = %3
  %8 = icmp eq i64 %2, 0
  br label %.lr.ph

.lr.ph:                                           ; preds = %.lr.ph.preheader, %_ZN4llvmeqENS_9StringRefES0_.exit.thread15
  %.01318 = phi ptr [ %12, %_ZN4llvmeqENS_9StringRefES0_.exit.thread15 ], [ %5, %.lr.ph.preheader ]
  %9 = getelementptr inbounds nuw i8, ptr %.01318, i64 16
  %.sroa.01.0.copyload = load ptr, ptr %9, align 8
  %.sroa.22.0..sroa_idx = getelementptr inbounds i8, ptr %.01318, i64 24
  %.sroa.22.0.copyload = load i64, ptr %.sroa.22.0..sroa_idx, align 8
  %.not.i = icmp eq i64 %.sroa.22.0.copyload, %2
  br i1 %.not.i, label %10, label %_ZN4llvmeqENS_9StringRefES0_.exit.thread15

10:                                               ; preds = %.lr.ph
  br i1 %8, label %_ZN4llvmeqENS_9StringRefES0_.exit.thread, label %_ZN4llvmeqENS_9StringRefES0_.exit

_ZN4llvmeqENS_9StringRefES0_.exit:                ; preds = %10
  %bcmp.i = tail call i32 @bcmp(ptr %.sroa.01.0.copyload, ptr %1, i64 %2)
  %11 = icmp eq i32 %bcmp.i, 0
  br i1 %11, label %_ZN4llvmeqENS_9StringRefES0_.exit.thread, label %_ZN4llvmeqENS_9StringRefES0_.exit.thread15

_ZN4llvmeqENS_9StringRefES0_.exit.thread15:       ; preds = %.lr.ph, %_ZN4llvmeqENS_9StringRefES0_.exit
  %12 = getelementptr inbounds i8, ptr %.01318, i64 32
  %.not.not = icmp eq ptr %12, %7
  br i1 %.not.not, label %_ZN4llvmeqENS_9StringRefES0_.exit.thread, label %.lr.ph

_ZN4llvmeqENS_9StringRefES0_.exit.thread:         ; preds = %_ZN4llvmeqENS_9StringRefES0_.exit, %_ZN4llvmeqENS_9StringRefES0_.exit.thread15, %10, %3
  %.not.lcssa = phi i1 [ false, %3 ], [ true, %10 ], [ false, %_ZN4llvmeqENS_9StringRefES0_.exit.thread15 ], [ true, %_ZN4llvmeqENS_9StringRefES0_.exit ]
  ret i1 %.not.lcssa
}